target datalayout = "e-m:e-p270:32:32-p271:32:32-p272:64:64-i64:64-i128:128-f80:128-n8:16:32:64-S128"
target triple = "x86_64-pc-linux-gnu"

%"class.icu_77::ErrorCode" = type <{ ptr, i32, [4 x i8] }>
%"class.icu_77::IcuToolErrorCode" = type { %"class.icu_77::ErrorCode.base", ptr }
%"class.icu_77::ErrorCode.base" = type <{ ptr, i32 }>

@.str.4 = private unnamed_addr constant [16 x i8] c"aliases = [\22%s\22\00", align 1
@.str.5 = private unnamed_addr constant [7 x i8] c", \22%s\22\00", align 1
@.str.6 = private unnamed_addr constant [3 x i8] c"]\0A\00", align 1
@.str.7 = private unnamed_addr constant [34 x i8] c"icuexportdata: dumpBinaryProperty\00", align 1
@.str.8 = private unnamed_addr constant [21 x i8] c"[[binary_property]]\0A\00", align 1
@.str.9 = private unnamed_addr constant [18 x i8] c"long_name = \22%s\22\0A\00", align 1
@.str.10 = private unnamed_addr constant [19 x i8] c"short_name = \22%s\22\0A\00", align 1
@.str.11 = private unnamed_addr constant [24 x i8] c"uproperty_discr = 0x%X\0A\00", align 1
@_ZTVN6icu_7716IcuToolErrorCodeE = available_externally unnamed_addr constant { [5 x ptr] } { [5 x ptr] [ptr null, ptr @_ZTIN6icu_7716IcuToolErrorCodeE, ptr @_ZN6icu_7716IcuToolErrorCodeD1Ev, ptr @_ZN6icu_7716IcuToolErrorCodeD0Ev, ptr @_ZNK6icu_7716IcuToolErrorCode13handleFailureEv] }, align 8
@_ZTVN6icu_779ErrorCodeE = external unnamed_addr constant { [5 x ptr] }, align 8

; Function Attrs: mustprogress nounwind uwtable
define linkonce_odr dso_local void @_ZN6icu_779ErrorCodeC2Ev(ptr noundef nonnull align 8 dereferenceable(12) %0) unnamed_addr #4 comdat align 2 {
  %2 = alloca ptr, align 8
  store ptr %0, ptr %2, align 8, !tbaa !24
  %3 = load ptr, ptr %2, align 8
  store ptr getelementptr inbounds inrange(-16, 24) ({ [5 x ptr] }, ptr @_ZTVN6icu_779ErrorCodeE, i32 0, i32 0, i32 2), ptr %3, align 8, !tbaa !30
  %4 = getelementptr inbounds nuw %"class.icu_77::ErrorCode", ptr %3, i32 0, i32 1
  store i32 0, ptr %4, align 8, !tbaa !26
  ret void
}

; Function Attrs: mustprogress uwtable
define dso_local void @_Z19dumpPropertyAliases9UPropertyP8_IO_FILE(i32 noundef %0, ptr noundef %1) #5 {
  %3 = alloca i32, align 4
  %4 = alloca ptr, align 8
  %5 = alloca i32, align 4
  %6 = alloca ptr, align 8
  %7 = alloca i32, align 4
  store i32 %0, ptr %3, align 4, !tbaa !34
  store ptr %1, ptr %4, align 8, !tbaa !36
  call void @llvm.lifetime.start.p0(i64 4, ptr %5) #3
  store i32 2, ptr %5, align 4, !tbaa !15
  br label %8

8:                                                ; preds = %32, %2
  br label %9

9:                                                ; preds = %8
  call void @llvm.lifetime.start.p0(i64 8, ptr %6) #3
  %10 = load i32, ptr %3, align 4, !tbaa !34
  %11 = load i32, ptr %5, align 4, !tbaa !15
  %12 = call ptr @u_getPropertyName_77(i32 noundef %10, i32 noundef %11)
  store ptr %12, ptr %6, align 8, !tbaa !18
  %13 = load ptr, ptr %6, align 8, !tbaa !18
  %14 = icmp ne ptr %13, null
  br i1 %14, label %16, label %15

15:                                               ; preds = %9
  store i32 3, ptr %7, align 4
  br label %30

16:                                               ; preds = %9
  %17 = load i32, ptr %5, align 4, !tbaa !15
  %18 = icmp eq i32 %17, 2
  br i1 %18, label %19, label %23

19:                                               ; preds = %16
  %20 = load ptr, ptr %4, align 8, !tbaa !36
  %21 = load ptr, ptr %6, align 8, !tbaa !18
  %22 = call i32 (ptr, ptr, ...) @fprintf(ptr noundef %20, ptr noundef @.str.4, ptr noundef %21) #3
  br label %27

23:                                               ; preds = %16
  %24 = load ptr, ptr %4, align 8, !tbaa !36
  %25 = load ptr, ptr %6, align 8, !tbaa !18
  %26 = call i32 (ptr, ptr, ...) @fprintf(ptr noundef %24, ptr noundef @.str.5, ptr noundef %25) #3
  br label %27

27:                                               ; preds = %23, %19
  %28 = load i32, ptr %5, align 4, !tbaa !15
  %29 = add nsw i32 %28, 1
  store i32 %29, ptr %5, align 4, !tbaa !15
  store i32 0, ptr %7, align 4
  br label %30

30:                                               ; preds = %27, %15
  call void @llvm.lifetime.end.p0(i64 8, ptr %6) #3
  %31 = load i32, ptr %7, align 4
  switch i32 %31, label %40 [
    i32 0, label %32
    i32 3, label %33
  ]

32:                                               ; preds = %30
  br label %8, !llvm.loop !38

33:                                               ; preds = %30
  %34 = load i32, ptr %5, align 4, !tbaa !15
  %35 = icmp ne i32 %34, 2
  br i1 %35, label %36, label %39

36:                                               ; preds = %33
  %37 = load ptr, ptr %4, align 8, !tbaa !36
  %38 = call i32 (ptr, ptr, ...) @fprintf(ptr noundef %37, ptr noundef @.str.6) #3
  br label %39

39:                                               ; preds = %36, %33
  call void @llvm.lifetime.end.p0(i64 4, ptr %5) #3
  ret void

40:                                               ; preds = %30
  unreachable
}

; Function Attrs: mustprogress nounwind uwtable
define linkonce_odr dso_local noundef ptr @_ZN6icu_779ErrorCodecvP10UErrorCodeEv(ptr noundef nonnull align 8 dereferenceable(12) %0) #4 comdat align 2 {
  %2 = alloca ptr, align 8
  store ptr %0, ptr %2, align 8, !tbaa !24
  %3 = load ptr, ptr %2, align 8
  %4 = getelementptr inbounds nuw %"class.icu_77::ErrorCode", ptr %3, i32 0, i32 1
  ret ptr %4
}

; Function Attrs: mustprogress uwtable
define linkonce_odr dso_local void @_ZN6icu_7716IcuToolErrorCodeC2EPKc(ptr noundef nonnull align 8 dereferenceable(24) %0, ptr noundef %1) unnamed_addr #5 comdat align 2 {
  %3 = alloca ptr, align 8
  %4 = alloca ptr, align 8
  store ptr %0, ptr %3, align 8, !tbaa !42
  store ptr %1, ptr %4, align 8, !tbaa !18
  %5 = load ptr, ptr %3, align 8
  call void @_ZN6icu_779ErrorCodeC2Ev(ptr noundef nonnull align 8 dereferenceable(12) %5)
  store ptr getelementptr inbounds inrange(-16, 24) ({ [5 x ptr] }, ptr @_ZTVN6icu_7716IcuToolErrorCodeE, i32 0, i32 0, i32 2), ptr %5, align 8, !tbaa !30
  %6 = getelementptr inbounds nuw %"class.icu_77::IcuToolErrorCode", ptr %5, i32 0, i32 1
  %7 = load ptr, ptr %4, align 8, !tbaa !18
  store ptr %7, ptr %6, align 8, !tbaa !44
  ret void
}

; Function Attrs: mustprogress uwtable
define dso_local void @_Z18dumpBinaryProperty9UPropertyP8_IO_FILE(i32 noundef %0, ptr noundef %1) #5 personality ptr @__gxx_personality_v0 {
  %3 = alloca i32, align 4
  %4 = alloca ptr, align 8
  %5 = alloca %"class.icu_77::IcuToolErrorCode", align 8
  %6 = alloca ptr, align 8
  %7 = alloca ptr, align 8
  %8 = alloca i32, align 4
  %9 = alloca ptr, align 8
  %10 = alloca ptr, align 8
  store i32 %0, ptr %3, align 4, !tbaa !34
  store ptr %1, ptr %4, align 8, !tbaa !36
  call void @llvm.lifetime.start.p0(i64 24, ptr %5) #3
  call void @_ZN6icu_7716IcuToolErrorCodeC2EPKc(ptr noundef nonnull align 8 dereferenceable(24) %5, ptr noundef @.str.7)
  call void @llvm.lifetime.start.p0(i64 8, ptr %6) #3
  %11 = load i32, ptr %3, align 4, !tbaa !34
  %12 = invoke ptr @u_getPropertyName_77(i32 noundef %11, i32 noundef 1)
          to label %13 unwind label %36

13:                                               ; preds = %2
  store ptr %12, ptr %6, align 8, !tbaa !18
  call void @llvm.lifetime.start.p0(i64 8, ptr %9) #3
  %14 = load i32, ptr %3, align 4, !tbaa !34
  %15 = invoke ptr @u_getPropertyName_77(i32 noundef %14, i32 noundef 0)
          to label %16 unwind label %40

16:                                               ; preds = %13
  store ptr %15, ptr %9, align 8, !tbaa !18
  call void @llvm.lifetime.start.p0(i64 8, ptr %10) #3
  %17 = load i32, ptr %3, align 4, !tbaa !34
  %18 = invoke noundef ptr @_ZN6icu_779ErrorCodecvP10UErrorCodeEv(ptr noundef nonnull align 8 dereferenceable(12) %5)
          to label %19 unwind label %44

19:                                               ; preds = %16
  %20 = invoke ptr @u_getBinaryPropertySet_77(i32 noundef %17, ptr noundef %18)
          to label %21 unwind label %44

21:                                               ; preds = %19
  store ptr %20, ptr %10, align 8, !tbaa !40
  %22 = load ptr, ptr %6, align 8, !tbaa !18
  invoke void @_Z11handleErrorRN6icu_779ErrorCodeEiPKc(ptr noundef nonnull align 8 dereferenceable(12) %5, i32 noundef 182, ptr noundef %22)
          to label %23 unwind label %44

23:                                               ; preds = %21
  %24 = load ptr, ptr %4, align 8, !tbaa !36
  %25 = invoke i32 @fputs(ptr noundef @.str.8, ptr noundef %24)
          to label %26 unwind label %44

26:                                               ; preds = %23
  %27 = load ptr, ptr %4, align 8, !tbaa !36
  %28 = load ptr, ptr %6, align 8, !tbaa !18
  %29 = call i32 (ptr, ptr, ...) @fprintf(ptr noundef %27, ptr noundef @.str.9, ptr noundef %28) #3
  %30 = load ptr, ptr %9, align 8, !tbaa !18
  %31 = icmp ne ptr %30, null
  br i1 %31, label %32, label %48

32:                                               ; preds = %26
  %33 = load ptr, ptr %4, align 8, !tbaa !36
  %34 = load ptr, ptr %9, align 8, !tbaa !18
  %35 = call i32 (ptr, ptr, ...) @fprintf(ptr noundef %33, ptr noundef @.str.10, ptr noundef %34) #3
  br label %48

36:                                               ; preds = %2
  %37 = landingpad { ptr, i32 }
          cleanup
  %38 = extractvalue { ptr, i32 } %37, 0
  store ptr %38, ptr %7, align 8
  %39 = extractvalue { ptr, i32 } %37, 1
  store i32 %39, ptr %8, align 4
  br label %59

40:                                               ; preds = %13
  %41 = landingpad { ptr, i32 }
          cleanup
  %42 = extractvalue { ptr, i32 } %41, 0
  store ptr %42, ptr %7, align 8
  %43 = extractvalue { ptr, i32 } %41, 1
  store i32 %43, ptr %8, align 4
  br label %58

44:                                               ; preds = %54, %48, %23, %21, %19, %16
  %45 = landingpad { ptr, i32 }
          cleanup
  %46 = extractvalue { ptr, i32 } %45, 0
  store ptr %46, ptr %7, align 8
  %47 = extractvalue { ptr, i32 } %45, 1
  store i32 %47, ptr %8, align 4
  call void @llvm.lifetime.end.p0(i64 8, ptr %10) #3
  br label %58

48:                                               ; preds = %32, %26
  %49 = load ptr, ptr %4, align 8, !tbaa !36
  %50 = load i32, ptr %3, align 4, !tbaa !34
  %51 = call i32 (ptr, ptr, ...) @fprintf(ptr noundef %49, ptr noundef @.str.11, i32 noundef %50) #3
  %52 = load i32, ptr %3, align 4, !tbaa !34
  %53 = load ptr, ptr %4, align 8, !tbaa !36
  invoke void @_Z19dumpPropertyAliases9UPropertyP8_IO_FILE(i32 noundef %52, ptr noundef %53)
          to label %54 unwind label %44

54:                                               ; preds = %48
  %55 = load ptr, ptr %4, align 8, !tbaa !36
  %56 = load ptr, ptr %10, align 8, !tbaa !40
  invoke void @usrc_writeUnicodeSet(ptr noundef %55, ptr noundef %56, i32 noundef 1)
          to label %57 unwind label %44

57:                                               ; preds = %54
  call void @llvm.lifetime.end.p0(i64 8, ptr %10) #3
  call void @llvm.lifetime.end.p0(i64 8, ptr %9) #3
  call void @llvm.lifetime.end.p0(i64 8, ptr %6) #3
  call void @_ZN6icu_7716IcuToolErrorCodeD1Ev(ptr noundef nonnull align 8 dereferenceable(24) %5) #3
  call void @llvm.lifetime.end.p0(i64 24, ptr %5) #3
  ret void

58:                                               ; preds = %44, %40
  call void @llvm.lifetime.end.p0(i64 8, ptr %9) #3
  br label %59

59:                                               ; preds = %58, %36
  call void @llvm.lifetime.end.p0(i64 8, ptr %6) #3
  call void @_ZN6icu_7716IcuToolErrorCodeD1Ev(ptr noundef nonnull align 8 dereferenceable(24) %5) #3
  call void @llvm.lifetime.end.p0(i64 24, ptr %5) #3
  br label %60

60:                                               ; preds = %59
  %61 = load ptr, ptr %7, align 8
  %62 = load i32, ptr %8, align 4
  %63 = insertvalue { ptr, i32 } poison, ptr %61, 0
  %64 = insertvalue { ptr, i32 } %63, i32 %62, 1
  resume { ptr, i32 } %64
}