; Function Attrs: mustprogress uwtable
define dso_local void @_Z18dumpBinaryProperty9UPropertyP8_IO_FILE(i32 noundef %0, ptr noundef %1) local_unnamed_addr #4 personality ptr @__gxx_personality_v0 {
  %3 = alloca %"class.icu_77::IcuToolErrorCode", align 8
  call void @llvm.lifetime.start.p0(i64 24, ptr nonnull %3) #28
  %4 = getelementptr inbounds nuw i8, ptr %3, i64 8
  store i32 0, ptr %4, align 8, !tbaa !16
  store ptr getelementptr inbounds nuw inrange(-16, 24) (i8, ptr @_ZTVN6icu_7716IcuToolErrorCodeE, i64 16), ptr %3, align 8, !tbaa !18
  %5 = getelementptr inbounds nuw i8, ptr %3, i64 16
  store ptr @.str.7, ptr %5, align 8, !tbaa !20
  %6 = invoke ptr @u_getPropertyName_77(i32 noundef %0, i32 noundef 1)
          to label %7 unwind label %17

7:                                                ; preds = %2
  %8 = invoke ptr @u_getPropertyName_77(i32 noundef %0, i32 noundef 0)
          to label %9 unwind label %19

9:                                                ; preds = %7
  %10 = invoke ptr @u_getBinaryPropertySet_77(i32 noundef %0, ptr noundef nonnull %4)
          to label %11 unwind label %.loopexit.split-lp

11:                                               ; preds = %9
  invoke void @_Z11handleErrorRN6icu_779ErrorCodeEiPKc(ptr noundef nonnull align 8 dereferenceable(12) %3, i32 noundef 182, ptr noundef %6)
          to label %12 unwind label %.loopexit.split-lp

12:                                               ; preds = %11
  %13 = call i64 @fwrite(ptr nonnull @.str.8, i64 20, i64 1, ptr %1)
  %14 = call i32 (ptr, ptr, ...) @fprintf(ptr noundef %1, ptr noundef nonnull @.str.9, ptr noundef %6) #28
  %.not = icmp eq ptr %8, null
  br i1 %.not, label %21, label %15

15:                                               ; preds = %12
  %16 = call i32 (ptr, ptr, ...) @fprintf(ptr noundef %1, ptr noundef nonnull @.str.10, ptr noundef nonnull %8) #28
  br label %21

17:                                               ; preds = %2
  %18 = landingpad { ptr, i32 }
          cleanup
  br label %33

19:                                               ; preds = %7
  %20 = landingpad { ptr, i32 }
          cleanup
  br label %33

.loopexit:                                        ; preds = %.lr.ph.i
  %lpad.loopexit = landingpad { ptr, i32 }
          cleanup
  br label %33

.loopexit.split-lp:                               ; preds = %9, %11, %_Z19dumpPropertyAliases9UPropertyP8_IO_FILE.exit, %21
  %lpad.loopexit.split-lp = landingpad { ptr, i32 }
          cleanup
  br label %33

21:                                               ; preds = %15, %12
  %22 = call i32 (ptr, ptr, ...) @fprintf(ptr noundef %1, ptr noundef nonnull @.str.11, i32 noundef %0) #28
  %23 = invoke ptr @u_getPropertyName_77(i32 noundef %0, i32 noundef 2)
          to label %.noexc unwind label %.loopexit.split-lp

.noexc:                                           ; preds = %21
  %.not18.i = icmp eq ptr %23, null
  br i1 %.not18.i, label %_Z19dumpPropertyAliases9UPropertyP8_IO_FILE.exit, label %.lr.ph.i

.lr.ph.i:                                         ; preds = %.noexc, %.noexc22
  %24 = phi ptr [ %28, %.noexc22 ], [ %23, %.noexc ]
  %.01119.i = phi i32 [ %27, %.noexc22 ], [ 2, %.noexc ]
  %25 = icmp eq i32 %.01119.i, 2
  %.str.4..str.5.i = select i1 %25, ptr @.str.4, ptr @.str.5
  %26 = call i32 (ptr, ptr, ...) @fprintf(ptr noundef %1, ptr noundef nonnull %.str.4..str.5.i, ptr noundef nonnull %24) #28
  %27 = add nuw nsw i32 %.01119.i, 1
  %28 = invoke ptr @u_getPropertyName_77(i32 noundef %0, i32 noundef %27)
          to label %.noexc22 unwind label %.loopexit

.noexc22:                                         ; preds = %.lr.ph.i
  %.not.i = icmp eq ptr %28, null
  br i1 %.not.i, label %._crit_edge.i, label %.lr.ph.i

._crit_edge.i:                                    ; preds = %.noexc22
  %29 = icmp eq i32 %27, 2
  br i1 %29, label %_Z19dumpPropertyAliases9UPropertyP8_IO_FILE.exit, label %30

30:                                               ; preds = %._crit_edge.i
  %31 = call i64 @fwrite(ptr nonnull @.str.6, i64 2, i64 1, ptr %1)
  br label %_Z19dumpPropertyAliases9UPropertyP8_IO_FILE.exit

_Z19dumpPropertyAliases9UPropertyP8_IO_FILE.exit: ; preds = %30, %._crit_edge.i, %.noexc
  invoke void @usrc_writeUnicodeSet(ptr noundef %1, ptr noundef %10, i32 noundef 1)
          to label %32 unwind label %.loopexit.split-lp

32:                                               ; preds = %_Z19dumpPropertyAliases9UPropertyP8_IO_FILE.exit
  call void @_ZN6icu_7716IcuToolErrorCodeD1Ev(ptr noundef nonnull align 8 dereferenceable(24) %3) #28
  call void @llvm.lifetime.end.p0(i64 24, ptr nonnull %3) #28
  ret void

33:                                               ; preds = %.loopexit, %.loopexit.split-lp, %19, %17
  %.pn.pn = phi { ptr, i32 } [ %18, %17 ], [ %20, %19 ], [ %lpad.loopexit, %.loopexit ], [ %lpad.loopexit.split-lp, %.loopexit.split-lp ]
  call void @_ZN6icu_7716IcuToolErrorCodeD1Ev(ptr noundef nonnull align 8 dereferenceable(24) %3) #28
  call void @llvm.lifetime.end.p0(i64 24, ptr nonnull %3) #28
  resume { ptr, i32 } %.pn.pn
}